; Function Attrs: nounwind uwtable
define internal i32 @Wayland_GetGlobalMouseState(ptr noundef writeonly captures(none) initializes((0, 4)) %0, ptr noundef writeonly captures(none) initializes((0, 4)) %1) #0 {
  %3 = alloca i32, align 4
  %4 = alloca i32, align 4
  %5 = tail call ptr @SDL_GetMouse() #6
  %6 = getelementptr inbounds nuw i8, ptr %5, i64 128
  %7 = load ptr, ptr %6, align 8
  %.not = icmp eq ptr %7, null
  br i1 %.not, label %33, label %8

8:                                                ; preds = %2
  %9 = tail call ptr @SDL_GetVideoDevice() #6
  %10 = getelementptr inbounds nuw i8, ptr %9, i64 1656
  %11 = load ptr, ptr %10, align 8
  call void @llvm.lifetime.start.p0(i64 4, ptr nonnull %3) #6
  call void @llvm.lifetime.start.p0(i64 4, ptr nonnull %4) #6
  %12 = load ptr, ptr %6, align 8
  %13 = getelementptr inbounds nuw i8, ptr %12, i64 24
  %14 = load i32, ptr %13, align 8
  %15 = getelementptr inbounds nuw i8, ptr %12, i64 28
  %16 = load i32, ptr %15, align 4
  call void @SDL_RelativeToGlobalForWindow(ptr noundef %12, i32 noundef %14, i32 noundef %16, ptr noundef nonnull %3, ptr noundef nonnull %4) #6
  %17 = getelementptr inbounds nuw i8, ptr %5, i64 136
  %18 = load float, ptr %17, align 8
  %19 = load i32, ptr %3, align 4
  %20 = sitofp i32 %19 to float
  %21 = fadd float %18, %20
  store float %21, ptr %0, align 4
  %22 = getelementptr inbounds nuw i8, ptr %5, i64 140
  %23 = load float, ptr %22, align 4
  %24 = load i32, ptr %4, align 4
  %25 = sitofp i32 %24 to float
  %26 = fadd float %23, %25
  store float %26, ptr %1, align 4
  %27 = getelementptr inbounds nuw i8, ptr %11, i64 248
  %28 = getelementptr inbounds nuw i8, ptr %11, i64 256
  %.pn19 = load ptr, ptr %28, align 8
  %.not1820 = icmp eq ptr %.pn19, %27
  br i1 %.not1820, label %._crit_edge, label %.lr.ph

.lr.ph:                                           ; preds = %8, %.lr.ph
  %.pn22 = phi ptr [ %.pn, %.lr.ph ], [ %.pn19, %8 ]
  %.01621 = phi i32 [ %31, %.lr.ph ], [ 0, %8 ]
  %29 = getelementptr inbounds nuw i8, ptr %.pn22, i64 308
  %30 = load i32, ptr %29, align 4
  %31 = or i32 %30, %.01621
  %32 = getelementptr inbounds nuw i8, ptr %.pn22, i64 8
  %.pn = load ptr, ptr %32, align 8
  %.not18 = icmp eq ptr %.pn, %27
  br i1 %.not18, label %._crit_edge, label %.lr.ph, !llvm.loop !13

._crit_edge:                                      ; preds = %.lr.ph, %8
  %.016.lcssa = phi i32 [ 0, %8 ], [ %31, %.lr.ph ]
  call void @llvm.lifetime.end.p0(i64 4, ptr nonnull %4) #6
  call void @llvm.lifetime.end.p0(i64 4, ptr nonnull %3) #6
  br label %34

33:                                               ; preds = %2
  store float 0.000000e+00, ptr %0, align 4
  store float 0.000000e+00, ptr %1, align 4
  br label %34

34:                                               ; preds = %33, %._crit_edge
  %.1 = phi i32 [ %.016.lcssa, %._crit_edge ], [ 0, %33 ]
  ret i32 %.1
}